; Function Attrs: mustprogress uwtable
define hidden void @_ZN4cvc58internal4prop14ProofCnfStream10addBlockedESt10shared_ptrINS0_9ProofNodeEE(ptr noundef nonnull align 8 dereferenceable(848) %this, ptr noundef nonnull %pfn) local_unnamed_addr #3 align 2 {
entry:
  %ref.tmp.i = alloca i8, align 1
  %d_blocked = getelementptr inbounds i8, ptr %this, i64 672
  call void @llvm.lifetime.start.p0(i64 1, ptr nonnull %ref.tmp.i)
  store i8 1, ptr %ref.tmp.i, align 1
  %call.i = call noundef zeroext i1 @_ZN4cvc57context15CDInsertHashMapISt10shared_ptrINS_8internal9ProofNodeEEbNS3_21ProofNodeHashFunctionEE11insert_safeERKS5_RKb(ptr noundef nonnull align 8 dereferenceable(56) %d_blocked, ptr noundef nonnull align 8 dereferenceable(16) %pfn, ptr noundef nonnull align 1 dereferenceable(1) %ref.tmp.i)
  call void @llvm.lifetime.end.p0(i64 1, ptr nonnull %ref.tmp.i)
  ret void
}